; Function Attrs: mustprogress uwtable
define noundef zeroext i1 @_ZN3zmq8stream_t7xhas_inEv(ptr noundef nonnull align 8 dereferenceable(2112) %0) unnamed_addr #0 align 2 {
  %2 = alloca ptr, align 8
  %3 = getelementptr inbounds nuw i8, ptr %0, i64 1960
  %4 = load i8, ptr %3, align 8, !tbaa !6, !range !107, !noundef !108
  %5 = trunc nuw i8 %4 to i1
  br i1 %5, label %49, label %6

6:                                                ; preds = %1
  call void @llvm.lifetime.start.p0(i64 8, ptr nonnull %2) #18
  store ptr null, ptr %2, align 8, !tbaa !117
  %7 = getelementptr inbounds nuw i8, ptr %0, i64 1912
  %8 = getelementptr inbounds nuw i8, ptr %0, i64 2032
  %9 = call noundef i32 @_ZN3zmq4fq_t8recvpipeEPNS_5msg_tEPPNS_6pipe_tE(ptr noundef nonnull align 8 dereferenceable(41) %7, ptr noundef nonnull %8, ptr noundef nonnull %2)
  %.not = icmp eq i32 %9, 0
  br i1 %.not, label %10, label %48

10:                                               ; preds = %6
  %11 = load ptr, ptr %2, align 8, !tbaa !117
  %.not11 = icmp eq ptr %11, null
  br i1 %.not11, label %12, label %17, !prof !100

12:                                               ; preds = %10
  %13 = load ptr, ptr @stderr, align 8, !tbaa !101
  %14 = call i32 (ptr, ptr, ...) @fprintf(ptr noundef %13, ptr noundef nonnull @.str, ptr noundef nonnull @.str.5, ptr noundef nonnull @.str.2, i32 noundef 212) #21
  %15 = load ptr, ptr @stderr, align 8, !tbaa !101
  %16 = call i32 @fflush(ptr noundef %15)
  call void @_ZN3zmq9zmq_abortEPKc(ptr noundef nonnull @.str.5)
  br label %17

17:                                               ; preds = %10, %12
  %18 = call noundef zeroext i8 @_ZNK3zmq5msg_t5flagsEv(ptr noundef nonnull align 8 dereferenceable(64) %8)
  %19 = and i8 %18, 1
  %.not12 = icmp eq i8 %19, 0
  br i1 %.not12, label %25, label %20, !prof !112

20:                                               ; preds = %17
  %21 = load ptr, ptr @stderr, align 8, !tbaa !101
  %22 = call i32 (ptr, ptr, ...) @fprintf(ptr noundef %21, ptr noundef nonnull @.str, ptr noundef nonnull @.str.6, ptr noundef nonnull @.str.2, i32 noundef 213) #21
  %23 = load ptr, ptr @stderr, align 8, !tbaa !101
  %24 = call i32 @fflush(ptr noundef %23)
  call void @_ZN3zmq9zmq_abortEPKc(ptr noundef nonnull @.str.6)
  br label %25

25:                                               ; preds = %20, %17
  %26 = load ptr, ptr %2, align 8, !tbaa !117
  %27 = call noundef nonnull align 8 dereferenceable(17) ptr @_ZNK3zmq6pipe_t14get_routing_idEv(ptr noundef nonnull align 8 dereferenceable(328) %26)
  %28 = getelementptr inbounds nuw i8, ptr %0, i64 1968
  %29 = getelementptr inbounds nuw i8, ptr %27, i64 8
  %30 = load i64, ptr %29, align 8, !tbaa !110
  %31 = call noundef i32 @_ZN3zmq5msg_t9init_sizeEm(ptr noundef nonnull align 8 dereferenceable(64) %28, i64 noundef %30)
  %.not13 = icmp eq i32 %31, 0
  br i1 %.not13, label %40, label %32, !prof !112

32:                                               ; preds = %25
  %33 = tail call ptr @__errno_location() #23
  %34 = load i32, ptr %33, align 4, !tbaa !116
  %35 = call ptr @strerror(i32 noundef %34) #18
  %36 = load ptr, ptr @stderr, align 8, !tbaa !101
  %37 = call i32 (ptr, ptr, ...) @fprintf(ptr noundef %36, ptr noundef nonnull @.str.4, ptr noundef %35, ptr noundef nonnull @.str.2, i32 noundef 217) #21
  %38 = load ptr, ptr @stderr, align 8, !tbaa !101
  %39 = call i32 @fflush(ptr noundef %38)
  call void @_ZN3zmq9zmq_abortEPKc(ptr noundef %35)
  br label %40

40:                                               ; preds = %32, %25
  %41 = call noundef ptr @_ZNK3zmq5msg_t8metadataEv(ptr noundef nonnull align 8 dereferenceable(64) %8)
  %.not14 = icmp eq ptr %41, null
  br i1 %.not14, label %43, label %42

42:                                               ; preds = %40
  call void @_ZN3zmq5msg_t12set_metadataEPNS_10metadata_tE(ptr noundef nonnull align 8 dereferenceable(64) %28, ptr noundef nonnull %41)
  br label %43

43:                                               ; preds = %42, %40
  %44 = call noundef ptr @_ZN3zmq5msg_t4dataEv(ptr noundef nonnull align 8 dereferenceable(64) %28)
  %45 = load ptr, ptr %27, align 8, !tbaa !109
  %46 = load i64, ptr %29, align 8, !tbaa !110
  call void @llvm.memcpy.p0.p0.i64(ptr align 1 %44, ptr align 1 %45, i64 %46, i1 false)
  call void @_ZN3zmq5msg_t9set_flagsEh(ptr noundef nonnull align 8 dereferenceable(64) %28, i8 noundef zeroext 1)
  store i8 1, ptr %3, align 8, !tbaa !6
  %47 = getelementptr inbounds nuw i8, ptr %0, i64 1961
  store i8 0, ptr %47, align 1, !tbaa !94
  br label %48

48:                                               ; preds = %6, %43
  call void @llvm.lifetime.end.p0(i64 8, ptr nonnull %2) #18
  br label %49

49:                                               ; preds = %1, %48
  %.0 = phi i1 [ %.not, %48 ], [ true, %1 ]
  ret i1 %.0
}